target datalayout = "e-m:e-p270:32:32-p271:32:32-p272:64:64-i64:64-i128:128-f80:128-n8:16:32:64-S128"
target triple = "x86_64-pc-linux-gnu"

@rb_cObject = external global i64, align 8
@peeraddr_ip_str.rbimpl_id = internal global i64 0, align 8
@.str.278 = private unnamed_addr constant [6 x i8] c"Errno\00", align 1
@peeraddr_ip_str.rbimpl_id.279 = internal global i64 0, align 8
@.str.280 = private unnamed_addr constant [16 x i8] c"SystemCallError\00", align 1

; Function Attrs: inlinehint nounwind sspstrong willreturn memory(read) uwtable
define internal i64 @rb_intern_const(ptr noundef nonnull %0) #1 {
  %2 = alloca ptr, align 8
  %3 = alloca i64, align 8
  store ptr %0, ptr %2, align 8, !tbaa !16
  call void @llvm.lifetime.start.p0(i64 8, ptr %3) #20
  %4 = load ptr, ptr %2, align 8, !tbaa !16
  %5 = call i64 @strlen(ptr noundef %4) #21
  store i64 %5, ptr %3, align 8, !tbaa !14
  %6 = load ptr, ptr %2, align 8, !tbaa !16
  %7 = load i64, ptr %3, align 8, !tbaa !14
  %8 = call i64 @rb_intern2(ptr noundef %6, i64 noundef %7)
  call void @llvm.lifetime.end.p0(i64 8, ptr %3) #20
  ret i64 %8
}

; Function Attrs: inlinehint nounwind sspstrong memory(argmem: readwrite, inaccessiblemem: readwrite) uwtable
define internal i64 @rbimpl_intern_const(ptr noundef nonnull %0, ptr noundef nonnull %1) #15 {
  %3 = alloca ptr, align 8
  %4 = alloca ptr, align 8
  store ptr %0, ptr %3, align 8, !tbaa !32
  store ptr %1, ptr %4, align 8, !tbaa !16
  br label %5

5:                                                ; preds = %10, %2
  %6 = load ptr, ptr %3, align 8, !tbaa !32
  %7 = load i64, ptr %6, align 8, !tbaa !14
  %8 = icmp ne i64 %7, 0
  %9 = xor i1 %8, true
  br i1 %9, label %10, label %14

10:                                               ; preds = %5
  %11 = load ptr, ptr %4, align 8, !tbaa !16
  %12 = call i64 @rb_intern_const(ptr noundef %11) #21
  %13 = load ptr, ptr %3, align 8, !tbaa !32
  store i64 %12, ptr %13, align 8, !tbaa !14
  br label %5, !llvm.loop !73

14:                                               ; preds = %5
  %15 = load ptr, ptr %3, align 8, !tbaa !32
  %16 = load i64, ptr %15, align 8, !tbaa !14
  ret i64 %16
}

; Function Attrs: nounwind sspstrong uwtable
define internal i64 @peeraddr_ip_str(i64 noundef %0) #0 {
  %2 = alloca i64, align 8
  %3 = alloca i64, align 8
  %4 = alloca i64, align 8
  %5 = alloca i64, align 8
  %6 = alloca i64, align 8
  store i64 %0, ptr %2, align 8, !tbaa !14
  call void @llvm.lifetime.start.p0(i64 8, ptr %3) #20
  %7 = load i64, ptr @rb_cObject, align 8, !tbaa !14
  %8 = call i64 @rbimpl_intern_const(ptr noundef @peeraddr_ip_str.rbimpl_id, ptr noundef @.str.278) #24
  store i64 %8, ptr %4, align 8, !tbaa !14
  %9 = load i64, ptr %4, align 8, !tbaa !14
  %10 = call i64 @rb_const_get(i64 noundef %7, i64 noundef %9)
  store i64 %10, ptr %3, align 8, !tbaa !14
  call void @llvm.lifetime.start.p0(i64 8, ptr %5) #20
  %11 = load i64, ptr %3, align 8, !tbaa !14
  %12 = call i64 @rbimpl_intern_const(ptr noundef @peeraddr_ip_str.rbimpl_id.279, ptr noundef @.str.280) #24
  store i64 %12, ptr %6, align 8, !tbaa !14
  %13 = load i64, ptr %6, align 8, !tbaa !14
  %14 = call i64 @rb_const_get(i64 noundef %11, i64 noundef %13)
  store i64 %14, ptr %5, align 8, !tbaa !14
  %15 = load i64, ptr %2, align 8, !tbaa !14
  %16 = load i64, ptr %5, align 8, !tbaa !14
  %17 = call i64 (ptr, i64, ptr, i64, ...) @rb_rescue2(ptr noundef @peer_ip_address, i64 noundef %15, ptr noundef @fallback_peer_ip_address, i64 noundef 0, i64 noundef %16, ptr noundef null)
  call void @llvm.lifetime.end.p0(i64 8, ptr %5) #20
  call void @llvm.lifetime.end.p0(i64 8, ptr %3) #20
  ret i64 %17
}