; Function Attrs: nounwind sspstrong uwtable
define internal fastcc i64 @peeraddr_ip_str(i64 noundef %0) unnamed_addr #0 {
  %2 = load i64, ptr @rb_cObject, align 8, !tbaa !10
  %.pr.i = load i64, ptr @peeraddr_ip_str.rbimpl_id, align 8, !tbaa !10
  %.not4.i = icmp eq i64 %.pr.i, 0
  br i1 %.not4.i, label %.lr.ph.i, label %rbimpl_intern_const.exit

.lr.ph.i:                                         ; preds = %1, %.lr.ph.i
  %3 = tail call i64 @rb_intern2(ptr noundef nonnull @.str.278, i64 noundef 5) #9
  store i64 %3, ptr @peeraddr_ip_str.rbimpl_id, align 8, !tbaa !10
  %.not.i = icmp eq i64 %3, 0
  br i1 %.not.i, label %.lr.ph.i, label %rbimpl_intern_const.exit, !llvm.loop !29

rbimpl_intern_const.exit:                         ; preds = %.lr.ph.i, %1
  %.lcssa.i = phi i64 [ %.pr.i, %1 ], [ %3, %.lr.ph.i ]
  %4 = tail call i64 @rb_const_get(i64 noundef %2, i64 noundef %.lcssa.i) #9
  %.pr.i5 = load i64, ptr @peeraddr_ip_str.rbimpl_id.279, align 8, !tbaa !10
  %.not4.i6 = icmp eq i64 %.pr.i5, 0
  br i1 %.not4.i6, label %.lr.ph.i8, label %rbimpl_intern_const.exit10

.lr.ph.i8:                                        ; preds = %rbimpl_intern_const.exit, %.lr.ph.i8
  %5 = tail call i64 @rb_intern2(ptr noundef nonnull @.str.280, i64 noundef 15) #9
  store i64 %5, ptr @peeraddr_ip_str.rbimpl_id.279, align 8, !tbaa !10
  %.not.i9 = icmp eq i64 %5, 0
  br i1 %.not.i9, label %.lr.ph.i8, label %rbimpl_intern_const.exit10, !llvm.loop !29

rbimpl_intern_const.exit10:                       ; preds = %.lr.ph.i8, %rbimpl_intern_const.exit
  %.lcssa.i7 = phi i64 [ %.pr.i5, %rbimpl_intern_const.exit ], [ %5, %.lr.ph.i8 ]
  %6 = tail call i64 @rb_const_get(i64 noundef %4, i64 noundef %.lcssa.i7) #9
  %7 = tail call i64 (ptr, i64, ptr, i64, ...) @rb_rescue2(ptr noundef nonnull @peer_ip_address, i64 noundef %0, ptr noundef nonnull @fallback_peer_ip_address, i64 noundef 0, i64 noundef %6, ptr noundef null) #9
  ret i64 %7
}